(dp0
S'METTS MARK'
p1
(dp2
S'to_messages'
p3
I807
sS'deferral_payments'
p4
I0
sS'expenses'
p5
I94299
sS'poi'
p6
I00
sS'deferred_income'
p7
I0
sS'email_address'
p8
S'mark.metts@enron.com'
p9
sS'long_term_incentive'
p10
I0
sS'restricted_stock_deferred'
p11
I0
sS'shared_receipt_with_poi'
p12
I702
sS'loan_advances'
p13
I0
sS'from_messages'
p14
I29
sS'other'
p15
I1740
sS'to_poi_ratio'
p16
F0.04708798017348203
sS'director_fees'
p17
I0
sS'bonus'
p18
I600000
sS'total_stock_value'
p19
I585062
sS'from_poi_to_this_person'
p20
I38
sS'from_this_person_to_poi'
p21
I1
sS'from_poi_ratio'
p22
F0.034482758620689655
sS'restricted_stock'
p23
I585062
sS'salary'
p24
I365788
sS'total_payments'
p25
I1061827
sS'exercised_stock_options'
p26
I0
ssS'BAXTER JOHN C'
p27
(dp28
g3
I0
sg4
I1295738
sg5
I11200
sg6
I00
sg7
I-1386055
sg8
S'NaN'
p29
sg10
I1586055
sg11
I0
sg12
I0
sg13
I0
sg14
I0
sg15
I2660303
sg16
F0.0
sg17
I0
sg18
I1200000
sg19
I10623258
sg20
I0
sg21
I0
sg22
F0.0
sg23
I3942714
sg24
I267102
sg25
I5634343
sg26
I6680544
ssS'ELLIOTT STEVEN'
p30
(dp31
g3
I0
sg4
I0
sg5
I78552
sg6
I00
sg7
I-400729
sg8
S'steven.elliott@enron.com'
p32
sg10
I0
sg11
I0
sg12
I0
sg13
I0
sg14
I0
sg15
I12961
sg16
F0.0
sg17
I0
sg18
I350000
sg19
I6678735
sg20
I0
sg21
I0
sg22
F0.0
sg23
I1788391
sg24
I170941
sg25
I211725
sg26
I4890344
ssS'CORDES WILLIAM R'
p33
(dp34
g3
I764
sg4
I0
sg5
I0
sg6
I00
sg7
I0
sg8
S'bill.cordes@enron.com'
p35
sg10
I0
sg11
I0
sg12
I58
sg13
I0
sg14
I12
sg15
I0
sg16
F0.013089005235602094
sg17
I0
sg18
I0
sg19
I1038185
sg20
I10
sg21
I0
sg22
F0.0
sg23
I386335
sg24
I0
sg25
I0
sg26
I651850
ssS'HANNON KEVIN P'
p36
(dp37
g3
I1045
sg4
I0
sg5
I34039
sg6
I01
sg7
I-3117011
sg8
S'kevin.hannon@enron.com'
p38
sg10
I1617011
sg11
I0
sg12
I1035
sg13
I0
sg14
I32
sg15
I11350
sg16
F0.03062200956937799
sg17
I0
sg18
I1500000
sg19
I6391065
sg20
I32
sg21
I21
sg22
F0.65625
sg23
I853064
sg24
I243293
sg25
I288682
sg26
I5538001
ssS'MORDAUNT KRISTINA M'
p39
(dp40
g3
I0
sg4
I0
sg5
I35018
sg6
I00
sg7
I0
sg8
S'kristina.mordaunt@enron.com'
p41
sg10
I0
sg11
I0
sg12
I0
sg13
I0
sg14
I0
sg15
I1411
sg16
F0.0
sg17
I0
sg18
I325000
sg19
I208510
sg20
I0
sg21
I0
sg22
F0.0
sg23
I208510
sg24
I267093
sg25
I628522
sg26
I0
ssS'MEYER ROCKFORD G'
p42
(dp43
g3
I232
sg4
I1848227
sg5
I0
sg6
I00
sg7
I0
sg8
S'rockford.meyer@enron.com'
p44
sg10
I0
sg11
I0
sg12
I22
sg13
I0
sg14
I28
sg15
I0
sg16
F0.0
sg17
I0
sg18
I0
sg19
I955873
sg20
I0
sg21
I0
sg22
F0.0
sg23
I462384
sg24
I0
sg25
I1848227
sg26
I493489
ssS'MCMAHON JEFFREY'
p45
(dp46
g3
I2355
sg4
I0
sg5
I137108
sg6
I00
sg7
I0
sg8
S'jeffrey.mcmahon@enron.com'
p47
sg10
I694862
sg11
I0
sg12
I2228
sg13
I0
sg14
I48
sg15
I297353
sg16
F0.024628450106157114
sg17
I0
sg18
I2600000
sg19
I1662855
sg20
I58
sg21
I26
sg22
F0.5416666666666666
sg23
I558801
sg24
I370448
sg25
I4099771
sg26
I1104054
ssS'HORTON STANLEY C'
p48
(dp49
g3
I2350
sg4
I3131860
sg5
I0
sg6
I00
sg7
I0
sg8
S'stanley.horton@enron.com'
p50
sg10
I0
sg11
I0
sg12
I1074
sg13
I0
sg14
I1073
sg15
I0
sg16
F0.01872340425531915
sg17
I0
sg18
I0
sg19
I7256648
sg20
I44
sg21
I15
sg22
F0.013979496738117428
sg23
I2046079
sg24
I0
sg25
I3131860
sg26
I5210569
ssS'PIPER GREGORY F'
p51
(dp52
g3
I1238
sg4
I1130036
sg5
I43057
sg6
I00
sg7
I-33333
sg8
S'greg.piper@enron.com'
p53
sg10
I0
sg11
I-409554
sg12
I742
sg13
I0
sg14
I222
sg15
I778
sg16
F0.049273021001615507
sg17
I0
sg18
I400000
sg19
I880290
sg20
I61
sg21
I48
sg22
F0.21621621621621623
sg23
I409554
sg24
I197091
sg25
I1737629
sg26
I880290
ssS'HUMPHREY GENE E'
p54
(dp55
g3
I128
sg4
I2964506
sg5
I4994
sg6
I00
sg7
I0
sg8
S'gene.humphrey@enron.com'
p56
sg10
I0
sg11
I0
sg12
I119
sg13
I0
sg14
I17
sg15
I0
sg16
F0.078125
sg17
I0
sg18
I0
sg19
I2282768
sg20
I10
sg21
I17
sg22
F1.0
sg23
I0
sg24
I130724
sg25
I3100224
sg26
I2282768
ssS'UMANOFF ADAM S'
p57
(dp58
g3
I111
sg4
I0
sg5
I53122
sg6
I00
sg7
I0
sg8
S'adam.umanoff@enron.com'
p59
sg10
I0
sg11
I0
sg12
I41
sg13
I0
sg14
I18
sg15
I0
sg16
F0.10810810810810811
sg17
I0
sg18
I788750
sg19
I0
sg20
I12
sg21
I0
sg22
F0.0
sg23
I0
sg24
I288589
sg25
I1130461
sg26
I0
ssS'BLACHMAN JEREMY M'
p60
(dp61
g3
I2475
sg4
I0
sg5
I84208
sg6
I00
sg7
I0
sg8
S'jeremy.blachman@enron.com'
p62
sg10
I831809
sg11
I0
sg12
I2326
sg13
I0
sg14
I14
sg15
I272
sg16
F0.010101010101010102
sg17
I0
sg18
I850000
sg19
I954354
sg20
I25
sg21
I2
sg22
F0.14285714285714285
sg23
I189041
sg24
I248546
sg25
I2014835
sg26
I765313
ssS'SUNDE MARTIN'
p63
(dp64
g3
I2647
sg4
I0
sg5
I0
sg6
I00
sg7
I0
sg8
S'marty.sunde@enron.com'
p65
sg10
I476451
sg11
I0
sg12
I2565
sg13
I0
sg14
I38
sg15
I111122
sg16
F0.013978088401964487
sg17
I0
sg18
I700000
sg19
I698920
sg20
I37
sg21
I13
sg22
F0.34210526315789475
sg23
I698920
sg24
I257486
sg25
I1545059
sg26
I0
ssS'GIBBS DANA R'
p66
(dp67
g3
I169
sg4
I504610
sg5
I0
sg6
I00
sg7
I0
sg8
S'dana.gibbs@enron.com'
p68
sg10
I461912
sg11
I0
sg12
I23
sg13
I0
sg14
I12
sg15
I0
sg16
F0.0
sg17
I0
sg18
I0
sg19
I2218275
sg20
I0
sg21
I0
sg22
F0.0
sg23
I0
sg24
I0
sg25
I966522
sg26
I2218275
ssS'LOWRY CHARLES P'
p69
(dp70
g3
I0
sg4
I0
sg5
I0
sg6
I00
sg7
I0
sg8
g29
sg10
I0
sg11
I-153686
sg12
I0
sg13
I0
sg14
I0
sg15
I0
sg16
F0.0
sg17
I0
sg18
I0
sg19
I372205
sg20
I0
sg21
I0
sg22
F0.0
sg23
I153686
sg24
I0
sg25
I0
sg26
I372205
ssS'COLWELL WESLEY'
p71
(dp72
g3
I1758
sg4
I27610
sg5
I16514
sg6
I01
sg7
I-144062
sg8
S'wes.colwell@enron.com'
p73
sg10
I0
sg11
I0
sg12
I1132
sg13
I0
sg14
I40
sg15
I101740
sg16
F0.13651877133105803
sg17
I0
sg18
I1200000
sg19
I698242
sg20
I240
sg21
I11
sg22
F0.275
sg23
I698242
sg24
I288542
sg25
I1490344
sg26
I0
ssS'MULLER MARK S'
p74
(dp75
g3
I136
sg4
I842924
sg5
I0
sg6
I00
sg7
I-719000
sg8
S's..muller@enron.com'
p76
sg10
I1725545
sg11
I0
sg12
I114
sg13
I0
sg14
I16
sg15
I947
sg16
F0.08823529411764706
sg17
I0
sg18
I1100000
sg19
I1416848
sg20
I12
sg21
I0
sg22
F0.0
sg23
I360528
sg24
I251654
sg25
I3202070
sg26
I1056320
ssS'JACKSON CHARLENE R'
p77
(dp78
g3
I258
sg4
I0
sg5
I10181
sg6
I00
sg7
I0
sg8
S'charlene.jackson@enron.com'
p79
sg10
I0
sg11
I0
sg12
I117
sg13
I0
sg14
I56
sg15
I2435
sg16
F0.09689922480620156
sg17
I0
sg18
I250000
sg19
I725735
sg20
I25
sg21
I19
sg22
F0.3392857142857143
sg23
I540672
sg24
I288558
sg25
I551174
sg26
I185063
ssS'WESTFAHL RICHARD K'
p80
(dp81
g3
I0
sg4
I0
sg5
I51870
sg6
I00
sg7
I-10800
sg8
S'dick.westfahl@enron.com'
p82
sg10
I256191
sg11
I0
sg12
I0
sg13
I0
sg14
I0
sg15
I401130
sg16
F0.0
sg17
I0
sg18
I0
sg19
I384930
sg20
I0
sg21
I0
sg22
F0.0
sg23
I384930
sg24
I63744
sg25
I762135
sg26
I0
ssS'WALTERS GARETH W'
p83
(dp84
g3
I0
sg4
I53625
sg5
I33785
sg6
I00
sg7
I0
sg8
g29
sg10
I0
sg11
I0
sg12
I0
sg13
I0
sg14
I0
sg15
I0
sg16
F0.0
sg17
I0
sg18
I0
sg19
I1030329
sg20
I0
sg21
I0
sg22
F0.0
sg23
I0
sg24
I0
sg25
I87410
sg26
I1030329
ssS'WALLS JR ROBERT H'
p85
(dp86
g3
I671
sg4
I0
sg5
I50936
sg6
I00
sg7
I0
sg8
S'rob.walls@enron.com'
p87
sg10
I540751
sg11
I0
sg12
I215
sg13
I0
sg14
I146
sg15
I2
sg16
F0.02533532041728763
sg17
I0
sg18
I850000
sg19
I5898997
sg20
I17
sg21
I0
sg22
F0.0
sg23
I1552453
sg24
I357091
sg25
I1798780
sg26
I4346544
ssS'KITCHEN LOUISE'
p88
(dp89
g3
I8305
sg4
I0
sg5
I5774
sg6
I00
sg7
I0
sg8
S'louise.kitchen@enron.com'
p90
sg10
I0
sg11
I0
sg12
I3669
sg13
I0
sg14
I1728
sg15
I93925
sg16
F0.030222757375075255
sg17
I0
sg18
I3100000
sg19
I547143
sg20
I251
sg21
I194
sg22
F0.11226851851851852
sg23
I466101
sg24
I271442
sg25
I3471141
sg26
I81042
ssS'CHAN RONNIE'
p91
(dp92
g3
I0
sg4
I0
sg5
I0
sg6
I00
sg7
I-98784
sg8
g29
sg10
I0
sg11
I-32460
sg12
I0
sg13
I0
sg14
I0
sg15
I0
sg16
F0.0
sg17
I98784
sg18
I0
sg19
I0
sg20
I0
sg21
I0
sg22
F0.0
sg23
I32460
sg24
I0
sg25
I0
sg26
I0
ssS'BELFER ROBERT'
p93
(dp94
g3
I0
sg4
I-102500
sg5
I0
sg6
I00
sg7
I0
sg8
g29
sg10
I0
sg11
I44093
sg12
I0
sg13
I0
sg14
I0
sg15
I0
sg16
F0.0
sg17
I3285
sg18
I0
sg19
I-44093
sg20
I0
sg21
I0
sg22
F0.0
sg23
I0
sg24
I0
sg25
I102500
sg26
I3285
ssS'SHANKMAN JEFFREY A'
p95
(dp96
g3
I3221
sg4
I0
sg5
I178979
sg6
I00
sg7
I0
sg8
S'jeffrey.shankman@enron.com'
p97
sg10
I554422
sg11
I0
sg12
I1730
sg13
I0
sg14
I2681
sg15
I1191
sg16
F0.029183483390251473
sg17
I0
sg18
I2000000
sg19
I2072035
sg20
I94
sg21
I83
sg22
F0.030958597538232
sg23
I630137
sg24
I304110
sg25
I3038702
sg26
I1441898
ssS'WODRASKA JOHN'
p98
(dp99
g3
I0
sg4
I0
sg5
I0
sg6
I00
sg7
I0
sg8
S'john.wodraska@enron.com'
p100
sg10
I0
sg11
I0
sg12
I0
sg13
I0
sg14
I0
sg15
I189583
sg16
F0.0
sg17
I0
sg18
I0
sg19
I0
sg20
I0
sg21
I0
sg22
F0.0
sg23
I0
sg24
I0
sg25
I189583
sg26
I0
ssS'BERGSIEKER RICHARD P'
p101
(dp102
g3
I383
sg4
I0
sg5
I59175
sg6
I00
sg7
I-485813
sg8
S'rick.bergsieker@enron.com'
p103
sg10
I180250
sg11
I0
sg12
I233
sg13
I0
sg14
I59
sg15
I427316
sg16
F0.010443864229765013
sg17
I0
sg18
I250000
sg19
I659249
sg20
I4
sg21
I0
sg22
F0.0
sg23
I659249
sg24
I187922
sg25
I618850
sg26
I0
ssS'URQUHART JOHN A'
p104
(dp105
g3
I0
sg4
I0
sg5
I228656
sg6
I00
sg7
I-36666
sg8
g29
sg10
I0
sg11
I0
sg12
I0
sg13
I0
sg14
I0
sg15
I0
sg16
F0.0
sg17
I36666
sg18
I0
sg19
I0
sg20
I0
sg21
I0
sg22
F0.0
sg23
I0
sg24
I0
sg25
I228656
sg26
I0
ssS'BIBI PHILIPPE A'
p106
(dp107
g3
I1607
sg4
I0
sg5
I38559
sg6
I00
sg7
I0
sg8
S'philippe.bibi@enron.com'
p108
sg10
I369721
sg11
I0
sg12
I1336
sg13
I0
sg14
I40
sg15
I425688
sg16
F0.01431238332296204
sg17
I0
sg18
I1000000
sg19
I1843816
sg20
I23
sg21
I8
sg22
F0.2
sg23
I378082
sg24
I213625
sg25
I2047593
sg26
I1465734
ssS'RIEKER PAULA H'
p109
(dp110
g3
I1328
sg4
I214678
sg5
I33271
sg6
I01
sg7
I-100000
sg8
S'paula.rieker@enron.com'
p111
sg10
I0
sg11
I0
sg12
I1258
sg13
I0
sg14
I82
sg15
I1950
sg16
F0.02635542168674699
sg17
I0
sg18
I700000
sg19
I1918887
sg20
I35
sg21
I48
sg22
F0.5853658536585366
sg23
I283649
sg24
I249201
sg25
I1099100
sg26
I1635238
ssS'WHALEY DAVID A'
p112
(dp113
g3
I0
sg4
I0
sg5
I0
sg6
I00
sg7
I0
sg8
g29
sg10
I0
sg11
I0
sg12
I0
sg13
I0
sg14
I0
sg15
I0
sg16
F0.0
sg17
I0
sg18
I0
sg19
I98718
sg20
I0
sg21
I0
sg22
F0.0
sg23
I0
sg24
I0
sg25
I0
sg26
I98718
ssS'BECK SALLY W'
p114
(dp115
g3
I7315
sg4
I0
sg5
I37172
sg6
I00
sg7
I0
sg8
S'sally.beck@enron.com'
p116
sg10
I0
sg11
I0
sg12
I2639
sg13
I0
sg14
I4343
sg15
I566
sg16
F0.01968557758031442
sg17
I0
sg18
I700000
sg19
I126027
sg20
I144
sg21
I386
sg22
F0.08887865530739121
sg23
I126027
sg24
I231330
sg25
I969068
sg26
I0
ssS'HAUG DAVID L'
p117
(dp118
g3
I573
sg4
I0
sg5
I475
sg6
I00
sg7
I0
sg8
S'david.haug@enron.com'
p119
sg10
I0
sg11
I0
sg12
I471
sg13
I0
sg14
I19
sg15
I0
sg16
F0.006980802792321117
sg17
I0
sg18
I0
sg19
I2217299
sg20
I4
sg21
I7
sg22
F0.3684210526315789
sg23
I2217299
sg24
I0
sg25
I475
sg26
I0
ssS'ECHOLS JOHN B'
p120
(dp121
g3
I0
sg4
I0
sg5
I21530
sg6
I00
sg7
I0
sg8
S'john.echols@enron.com'
p122
sg10
I2234774
sg11
I0
sg12
I0
sg13
I0
sg14
I0
sg15
I53775
sg16
F0.0
sg17
I0
sg18
I200000
sg19
I1008941
sg20
I0
sg21
I0
sg22
F0.0
sg23
I407503
sg24
I182245
sg25
I2692324
sg26
I601438
ssS'MENDELSOHN JOHN'
p123
(dp124
g3
I0
sg4
I0
sg5
I148
sg6
I00
sg7
I-103750
sg8
g29
sg10
I0
sg11
I0
sg12
I0
sg13
I0
sg14
I0
sg15
I0
sg16
F0.0
sg17
I103750
sg18
I0
sg19
I0
sg20
I0
sg21
I0
sg22
F0.0
sg23
I0
sg24
I0
sg25
I148
sg26
I0
ssS'HICKERSON GARY J'
p125
(dp126
g3
I1320
sg4
I0
sg5
I98849
sg6
I00
sg7
I0
sg8
S'gary.hickerson@enron.com'
p127
sg10
I69223
sg11
I0
sg12
I900
sg13
I0
sg14
I27
sg15
I1936
sg16
F0.030303030303030304
sg17
I0
sg18
I1700000
sg19
I441096
sg20
I40
sg21
I1
sg22
F0.037037037037037035
sg23
I441096
sg24
I211788
sg25
I2081796
sg26
I0
ssS'CLINE KENNETH W'
p128
(dp129
g3
I0
sg4
I0
sg5
I0
sg6
I00
sg7
I0
sg8
g29
sg10
I0
sg11
I-472568
sg12
I0
sg13
I0
sg14
I0
sg15
I0
sg16
F0.0
sg17
I0
sg18
I0
sg19
I189518
sg20
I0
sg21
I0
sg22
F0.0
sg23
I662086
sg24
I0
sg25
I0
sg26
I0
ssS'LEWIS RICHARD'
p130
(dp131
g3
I952
sg4
I0
sg5
I0
sg6
I00
sg7
I0
sg8
S'richard.lewis@enron.com'
p132
sg10
I0
sg11
I0
sg12
I739
sg13
I0
sg14
I26
sg15
I0
sg16
F0.01050420168067227
sg17
I0
sg18
I0
sg19
I850477
sg20
I10
sg21
I0
sg22
F0.0
sg23
I0
sg24
I0
sg25
I0
sg26
I850477
ssS'HAYES ROBERT E'
p133
(dp134
g3
I504
sg4
I7961
sg5
I0
sg6
I00
sg7
I0
sg8
S'robert.hayes@enron.com'
p135
sg10
I0
sg11
I0
sg12
I50
sg13
I0
sg14
I12
sg15
I0
sg16
F0.031746031746031744
sg17
I0
sg18
I0
sg19
I151418
sg20
I16
sg21
I0
sg22
F0.0
sg23
I151418
sg24
I0
sg25
I7961
sg26
I0
ssS'MCCARTY DANNY J'
p136
(dp137
g3
I1433
sg4
I0
sg5
I0
sg6
I00
sg7
I0
sg8
S'danny.mccarty@enron.com'
p138
sg10
I0
sg11
I0
sg12
I508
sg13
I0
sg14
I215
sg15
I0
sg16
F0.017445917655268667
sg17
I0
sg18
I0
sg19
I758931
sg20
I25
sg21
I2
sg22
F0.009302325581395349
sg23
I94556
sg24
I0
sg25
I0
sg26
I664375
ssS'KOPPER MICHAEL J'
p139
(dp140
g3
I0
sg4
I0
sg5
I118134
sg6
I01
sg7
I0
sg8
S'michael.kopper@enron.com'
p141
sg10
I602671
sg11
I0
sg12
I0
sg13
I0
sg14
I0
sg15
I907502
sg16
F0.0
sg17
I0
sg18
I800000
sg19
I985032
sg20
I0
sg21
I0
sg22
F0.0
sg23
I985032
sg24
I224305
sg25
I2652612
sg26
I0
ssS'LEFF DANIEL P'
p142
(dp143
g3
I2822
sg4
I0
sg5
I0
sg6
I00
sg7
I0
sg8
S'dan.leff@enron.com'
p144
sg10
I1387399
sg11
I0
sg12
I2672
sg13
I0
sg14
I63
sg15
I3083
sg16
F0.02374202693125443
sg17
I0
sg18
I1000000
sg19
I360528
sg20
I67
sg21
I14
sg22
F0.2222222222222222
sg23
I360528
sg24
I273746
sg25
I2664228
sg26
I0
ssS'LAVORATO JOHN J'
p145
(dp146
g3
I7259
sg4
I0
sg5
I49537
sg6
I00
sg7
I0
sg8
S'john.lavorato@enron.com'
p147
sg10
I2035380
sg11
I0
sg12
I3962
sg13
I0
sg14
I2585
sg15
I1552
sg16
F0.07273729163796666
sg17
I0
sg18
I8000000
sg19
I5167144
sg20
I528
sg21
I411
sg22
F0.15899419729206962
sg23
I1008149
sg24
I339288
sg25
I10425757
sg26
I4158995
ssS'BERBERIAN DAVID'
p148
(dp149
g3
I0
sg4
I0
sg5
I11892
sg6
I00
sg7
I0
sg8
S'david.berberian@enron.com'
p150
sg10
I0
sg11
I0
sg12
I0
sg13
I0
sg14
I0
sg15
I0
sg16
F0.0
sg17
I0
sg18
I0
sg19
I2493616
sg20
I0
sg21
I0
sg22
F0.0
sg23
I869220
sg24
I216582
sg25
I228474
sg26
I1624396
ssS'DETMERING TIMOTHY J'
p151
(dp152
g3
I0
sg4
I875307
sg5
I52255
sg6
I00
sg7
I-775241
sg8
S'timothy.detmering@enron.com'
p153
sg10
I415657
sg11
I-315068
sg12
I0
sg13
I0
sg14
I0
sg15
I1105
sg16
F0.0
sg17
I0
sg18
I425000
sg19
I2027865
sg20
I0
sg21
I0
sg22
F0.0
sg23
I315068
sg24
I210500
sg25
I1204583
sg26
I2027865
ssS'WAKEHAM JOHN'
p154
(dp155
g3
I0
sg4
I0
sg5
I103773
sg6
I00
sg7
I0
sg8
g29
sg10
I0
sg11
I0
sg12
I0
sg13
I0
sg14
I0
sg15
I0
sg16
F0.0
sg17
I109298
sg18
I0
sg19
I0
sg20
I0
sg21
I0
sg22
F0.0
sg23
I0
sg24
I0
sg25
I213071
sg26
I0
ssS'POWERS WILLIAM'
p156
(dp157
g3
I653
sg4
I0
sg5
I0
sg6
I00
sg7
I-17500
sg8
S'ken.powers@enron.com'
p158
sg10
I0
sg11
I0
sg12
I12
sg13
I0
sg14
I26
sg15
I0
sg16
F0.0
sg17
I17500
sg18
I0
sg19
I0
sg20
I0
sg21
I0
sg22
F0.0
sg23
I0
sg24
I0
sg25
I0
sg26
I0
ssS'GOLD JOSEPH'
p159
(dp160
g3
I0
sg4
I0
sg5
I0
sg6
I00
sg7
I0
sg8
S'joe.gold@enron.com'
p161
sg10
I304805
sg11
I0
sg12
I0
sg13
I0
sg14
I0
sg15
I819288
sg16
F0.0
sg17
I0
sg18
I750000
sg19
I877611
sg20
I0
sg21
I0
sg22
F0.0
sg23
I441096
sg24
I272880
sg25
I2146973
sg26
I436515
ssS'BANNANTINE JAMES M'
p162
(dp163
g3
I566
sg4
I0
sg5
I56301
sg6
I00
sg7
I-5104
sg8
S'james.bannantine@enron.com'
p164
sg10
I0
sg11
I-560222
sg12
I465
sg13
I0
sg14
I29
sg15
I864523
sg16
F0.06890459363957598
sg17
I0
sg18
I0
sg19
I5243487
sg20
I39
sg21
I0
sg22
F0.0
sg23
I1757552
sg24
I477
sg25
I916197
sg26
I4046157
ssS'DUNCAN JOHN H'
p165
(dp166
g3
I0
sg4
I0
sg5
I0
sg6
I00
sg7
I-25000
sg8
g29
sg10
I0
sg11
I0
sg12
I0
sg13
I0
sg14
I0
sg15
I0
sg16
F0.0
sg17
I102492
sg18
I0
sg19
I371750
sg20
I0
sg21
I0
sg22
F0.0
sg23
I0
sg24
I0
sg25
I77492
sg26
I371750
ssS'SHAPIRO RICHARD S'
p167
(dp168
g3
I15149
sg4
I0
sg5
I137767
sg6
I00
sg7
I0
sg8
S'richard.shapiro@enron.com'
p169
sg10
I0
sg11
I0
sg12
I4527
sg13
I0
sg14
I1215
sg15
I705
sg16
F0.0048848108786058485
sg17
I0
sg18
I650000
sg19
I987001
sg20
I74
sg21
I65
sg22
F0.053497942386831275
sg23
I379164
sg24
I269076
sg25
I1057548
sg26
I607837
ssS'SHERRIFF JOHN R'
p170
(dp171
g3
I3187
sg4
I0
sg5
I0
sg6
I00
sg7
I0
sg8
S'john.sherriff@enron.com'
p172
sg10
I554422
sg11
I0
sg12
I2103
sg13
I0
sg14
I92
sg15
I1852186
sg16
F0.008785691873235017
sg17
I0
sg18
I1500000
sg19
I3128982
sg20
I28
sg21
I23
sg22
F0.25
sg23
I1293424
sg24
I428780
sg25
I4335388
sg26
I1835558
ssS'SHELBY REX'
p173
(dp174
g3
I225
sg4
I0
sg5
I22884
sg6
I01
sg7
I-4167
sg8
S'rex.shelby@enron.com'
p175
sg10
I0
sg11
I0
sg12
I91
sg13
I0
sg14
I39
sg15
I1573324
sg16
F0.057777777777777775
sg17
I0
sg18
I200000
sg19
I2493616
sg20
I13
sg21
I14
sg22
F0.358974358974359
sg23
I869220
sg24
I211844
sg25
I2003885
sg26
I1624396
ssS'LEMAISTRE CHARLES'
p176
(dp177
g3
I0
sg4
I0
sg5
I0
sg6
I00
sg7
I-25000
sg8
g29
sg10
I0
sg11
I0
sg12
I0
sg13
I0
sg14
I0
sg15
I0
sg16
F0.0
sg17
I112492
sg18
I0
sg19
I412878
sg20
I0
sg21
I0
sg22
F0.0
sg23
I0
sg24
I0
sg25
I87492
sg26
I412878
ssS'DEFFNER JOSEPH M'
p178
(dp179
g3
I714
sg4
I0
sg5
I41626
sg6
I00
sg7
I0
sg8
S'joseph.deffner@enron.com'
p180
sg10
I335349
sg11
I0
sg12
I552
sg13
I0
sg14
I74
sg15
I25553
sg16
F0.16106442577030813
sg17
I0
sg18
I600000
sg19
I159211
sg20
I115
sg21
I4
sg22
F0.05405405405405406
sg23
I141833
sg24
I206121
sg25
I1208649
sg26
I17378
ssS'KISHKILL JOSEPH G'
p181
(dp182
g3
I0
sg4
I0
sg5
I116335
sg6
I00
sg7
I-51042
sg8
S'joe.kishkill@enron.com'
p183
sg10
I0
sg11
I0
sg12
I0
sg13
I0
sg14
I0
sg15
I465357
sg16
F0.0
sg17
I0
sg18
I0
sg19
I1034346
sg20
I0
sg21
I0
sg22
F0.0
sg23
I1034346
sg24
I174246
sg25
I704896
sg26
I0
ssS'WHALLEY LAWRENCE G'
p184
(dp185
g3
I6019
sg4
I0
sg5
I57838
sg6
I00
sg7
I0
sg8
S'greg.whalley@enron.com'
p186
sg10
I808346
sg11
I0
sg12
I3920
sg13
I0
sg14
I556
sg15
I301026
sg16
F0.03090214321315833
sg17
I0
sg18
I3000000
sg19
I6079137
sg20
I186
sg21
I24
sg22
F0.04316546762589928
sg23
I2796177
sg24
I510364
sg25
I4677574
sg26
I3282960
ssS'MCCONNELL MICHAEL S'
p187
(dp188
g3
I3329
sg4
I0
sg5
I81364
sg6
I00
sg7
I0
sg8
S'mike.mcconnell@enron.com'
p189
sg10
I554422
sg11
I0
sg12
I2189
sg13
I0
sg14
I2742
sg15
I540
sg16
F0.02763592670471613
sg17
I0
sg18
I1100000
sg19
I3101279
sg20
I92
sg21
I194
sg22
F0.07075127644055434
sg23
I1478269
sg24
I365038
sg25
I2101364
sg26
I1623010
ssS'PIRO JIM'
p190
(dp191
g3
I58
sg4
I0
sg5
I0
sg6
I00
sg7
I0
sg8
S'jim.piro@enron.com'
p192
sg10
I0
sg11
I0
sg12
I3
sg13
I0
sg14
I16
sg15
I0
sg16
F0.0
sg17
I0
sg18
I0
sg19
I47304
sg20
I0
sg21
I1
sg22
F0.0625
sg23
I47304
sg24
I0
sg25
I0
sg26
I0
ssS'DELAINEY DAVID W'
p193
(dp194
g3
I3093
sg4
I0
sg5
I86174
sg6
I01
sg7
I0
sg8
S'david.delainey@enron.com'
p195
sg10
I1294981
sg11
I0
sg12
I2097
sg13
I0
sg14
I3069
sg15
I1661
sg16
F0.02133850630455868
sg17
I0
sg18
I3000000
sg19
I3614261
sg20
I66
sg21
I609
sg22
F0.198435972629521
sg23
I1323148
sg24
I365163
sg25
I4747979
sg26
I2291113
ssS'SULLIVAN-SHAKLOVITZ COLLEEN'
p196
(dp197
g3
I0
sg4
I181993
sg5
I0
sg6
I00
sg7
I0
sg8
g29
sg10
I554422
sg11
I0
sg12
I0
sg13
I0
sg14
I0
sg15
I162
sg16
F0.0
sg17
I0
sg18
I100000
sg19
I1362375
sg20
I0
sg21
I0
sg22
F0.0
sg23
I0
sg24
I162779
sg25
I999356
sg26
I1362375
ssS'WROBEL BRUCE'
p198
(dp199
g3
I0
sg4
I0
sg5
I0
sg6
I00
sg7
I0
sg8
g29
sg10
I0
sg11
I0
sg12
I0
sg13
I0
sg14
I0
sg15
I0
sg16
F0.0
sg17
I0
sg18
I0
sg19
I139130
sg20
I0
sg21
I0
sg22
F0.0
sg23
I0
sg24
I0
sg25
I0
sg26
I139130
ssS'LINDHOLM TOD A'
p200
(dp201
g3
I0
sg4
I204075
sg5
I57727
sg6
I00
sg7
I0
sg8
S'tod.lindholm@enron.com'
p202
sg10
I175000
sg11
I0
sg12
I0
sg13
I0
sg14
I0
sg15
I2630
sg16
F0.0
sg17
I0
sg18
I200000
sg19
I3064208
sg20
I0
sg21
I0
sg22
F0.0
sg23
I514847
sg24
I236457
sg25
I875889
sg26
I2549361
ssS'MEYER JEROME J'
p203
(dp204
g3
I0
sg4
I0
sg5
I2151
sg6
I00
sg7
I-38346
sg8
g29
sg10
I0
sg11
I0
sg12
I0
sg13
I0
sg14
I0
sg15
I0
sg16
F0.0
sg17
I38346
sg18
I0
sg19
I0
sg20
I0
sg21
I0
sg22
F0.0
sg23
I0
sg24
I0
sg25
I2151
sg26
I0
ssS'LAY KENNETH L'
p205
(dp206
g3
I4273
sg4
I202911
sg5
I99832
sg6
I01
sg7
I-300000
sg8
S'kenneth.lay@enron.com'
p207
sg10
I3600000
sg11
I0
sg12
I2411
sg13
I81525000
sg14
I36
sg15
I10359729
sg16
F0.028785396676807865
sg17
I0
sg18
I7000000
sg19
I49110078
sg20
I123
sg21
I16
sg22
F0.4444444444444444
sg23
I14761694
sg24
I1072321
sg25
I103559793
sg26
I34348384
ssS'BUTTS ROBERT H'
p208
(dp209
g3
I0
sg4
I0
sg5
I9410
sg6
I00
sg7
I-75000
sg8
S'bob.butts@enron.com'
p210
sg10
I175000
sg11
I0
sg12
I0
sg13
I0
sg14
I0
sg15
I150656
sg16
F0.0
sg17
I0
sg18
I750000
sg19
I417619
sg20
I0
sg21
I0
sg22
F0.0
sg23
I417619
sg24
I261516
sg25
I1271582
sg26
I0
ssS'OLSON CINDY K'
p211
(dp212
g3
I1184
sg4
I77716
sg5
I63791
sg6
I00
sg7
I0
sg8
S'cindy.olson@enron.com'
p213
sg10
I100000
sg11
I0
sg12
I856
sg13
I0
sg14
I52
sg15
I972
sg16
F0.016891891891891893
sg17
I0
sg18
I750000
sg19
I2606763
sg20
I20
sg21
I15
sg22
F0.28846153846153844
sg23
I969729
sg24
I329078
sg25
I1321557
sg26
I1637034
ssS'MCDONALD REBECCA'
p214
(dp215
g3
I894
sg4
I0
sg5
I0
sg6
I00
sg7
I0
sg8
S'rebecca.mcdonald@enron.com'
p216
sg10
I0
sg11
I0
sg12
I720
sg13
I0
sg14
I13
sg15
I0
sg16
F0.06040268456375839
sg17
I0
sg18
I0
sg19
I1691366
sg20
I54
sg21
I1
sg22
F0.07692307692307693
sg23
I934065
sg24
I0
sg25
I0
sg26
I757301
ssS'CUMBERLAND MICHAEL S'
p217
(dp218
g3
I0
sg4
I0
sg5
I22344
sg6
I00
sg7
I0
sg8
g29
sg10
I275000
sg11
I0
sg12
I0
sg13
I0
sg14
I0
sg15
I713
sg16
F0.0
sg17
I0
sg18
I325000
sg19
I207940
sg20
I0
sg21
I0
sg22
F0.0
sg23
I207940
sg24
I184899
sg25
I807956
sg26
I0
ssS'GAHN ROBERT S'
p219
(dp220
g3
I0
sg4
I73122
sg5
I50080
sg6
I00
sg7
I-1042
sg8
g29
sg10
I0
sg11
I0
sg12
I0
sg13
I0
sg14
I0
sg15
I76547
sg16
F0.0
sg17
I0
sg18
I509870
sg19
I318607
sg20
I0
sg21
I0
sg22
F0.0
sg23
I235370
sg24
I192008
sg25
I900585
sg26
I83237
ssS'MCCLELLAN GEORGE'
p221
(dp222
g3
I1744
sg4
I0
sg5
I228763
sg6
I00
sg7
I-125000
sg8
S'george.mcclellan@enron.com'
p223
sg10
I0
sg11
I0
sg12
I1469
sg13
I0
sg14
I49
sg15
I51587
sg16
F0.02981651376146789
sg17
I0
sg18
I900000
sg19
I947861
sg20
I52
sg21
I0
sg22
F0.0
sg23
I441096
sg24
I263413
sg25
I1318763
sg26
I506765
ssS'HERMANN ROBERT J'
p224
(dp225
g3
I0
sg4
I0
sg5
I48357
sg6
I00
sg7
I-280000
sg8
S'robert.hermann@enron.com'
p226
sg10
I150000
sg11
I0
sg12
I0
sg13
I0
sg14
I0
sg15
I416441
sg16
F0.0
sg17
I0
sg18
I700000
sg19
I668132
sg20
I0
sg21
I0
sg22
F0.0
sg23
I480632
sg24
I262663
sg25
I1297461
sg26
I187500
ssS'SCRIMSHAW MATTHEW'
p227
(dp228
g3
I0
sg4
I0
sg5
I0
sg6
I00
sg7
I0
sg8
S'matthew.scrimshaw@enron.com'
p229
sg10
I0
sg11
I0
sg12
I0
sg13
I0
sg14
I0
sg15
I0
sg16
F0.0
sg17
I0
sg18
I0
sg19
I759557
sg20
I0
sg21
I0
sg22
F0.0
sg23
I0
sg24
I0
sg25
I0
sg26
I759557
ssS'GATHMANN WILLIAM D'
p230
(dp231
g3
I0
sg4
I0
sg5
I0
sg6
I00
sg7
I0
sg8
g29
sg10
I0
sg11
I-72419
sg12
I0
sg13
I0
sg14
I0
sg15
I0
sg16
F0.0
sg17
I0
sg18
I0
sg19
I1945360
sg20
I0
sg21
I0
sg22
F0.0
sg23
I264013
sg24
I0
sg25
I0
sg26
I1753766
ssS'HAEDICKE MARK E'
p232
(dp233
g3
I4009
sg4
I2157527
sg5
I76169
sg6
I00
sg7
I-934484
sg8
S'mark.haedicke@enron.com'
p234
sg10
I983346
sg11
I-329825
sg12
I1847
sg13
I0
sg14
I1941
sg15
I52382
sg16
F0.04489897730107259
sg17
I0
sg18
I1150000
sg19
I803094
sg20
I180
sg21
I61
sg22
F0.03142709943328181
sg23
I524169
sg24
I374125
sg25
I3859065
sg26
I608750
ssS'BOWEN JR RAYMOND M'
p235
(dp236
g3
I1858
sg4
I0
sg5
I65907
sg6
I01
sg7
I-833
sg8
S'raymond.bowen@enron.com'
p237
sg10
I974293
sg11
I0
sg12
I1593
sg13
I0
sg14
I27
sg15
I1621
sg16
F0.07534983853606028
sg17
I0
sg18
I1350000
sg19
I252055
sg20
I140
sg21
I15
sg22
F0.5555555555555556
sg23
I252055
sg24
I278601
sg25
I2669589
sg26
I0
ssS'GILLIS JOHN'
p238
(dp239
g3
I0
sg4
I0
sg5
I0
sg6
I00
sg7
I0
sg8
g29
sg10
I0
sg11
I0
sg12
I0
sg13
I0
sg14
I0
sg15
I0
sg16
F0.0
sg17
I0
sg18
I0
sg19
I85641
sg20
I0
sg21
I0
sg22
F0.0
sg23
I75838
sg24
I0
sg25
I0
sg26
I9803
ssS'FITZGERALD JAY L'
p240
(dp241
g3
I936
sg4
I0
sg5
I23870
sg6
I00
sg7
I0
sg8
S'jay.fitzgerald@enron.com'
p242
sg10
I556416
sg11
I0
sg12
I723
sg13
I0
sg14
I16
sg15
I285414
sg16
F0.0010683760683760685
sg17
I0
sg18
I350000
sg19
I1621236
sg20
I1
sg21
I8
sg22
F0.5
sg23
I956775
sg24
I199157
sg25
I1414857
sg26
I664461
ssS'MORAN MICHAEL P'
p243
(dp244
g3
I672
sg4
I0
sg5
I0
sg6
I00
sg7
I0
sg8
S'michael.moran@enron.com'
p245
sg10
I0
sg11
I0
sg12
I127
sg13
I0
sg14
I19
sg15
I0
sg16
F0.0
sg17
I0
sg18
I0
sg19
I221141
sg20
I0
sg21
I0
sg22
F0.0
sg23
I161602
sg24
I0
sg25
I0
sg26
I59539
ssS'REDMOND BRIAN L'
p246
(dp247
g3
I1671
sg4
I0
sg5
I14689
sg6
I00
sg7
I0
sg8
S'brian.redmond@enron.com'
p248
sg10
I0
sg11
I0
sg12
I1063
sg13
I0
sg14
I221
sg15
I0
sg16
F0.12208258527827648
sg17
I0
sg18
I0
sg19
I7890324
sg20
I204
sg21
I49
sg22
F0.22171945701357465
sg23
I381285
sg24
I96840
sg25
I111529
sg26
I7509039
ssS'BAZELIDES PHILIP J'
p249
(dp250
g3
I0
sg4
I684694
sg5
I0
sg6
I00
sg7
I0
sg8
g29
sg10
I93750
sg11
I0
sg12
I0
sg13
I0
sg14
I0
sg15
I874
sg16
F0.0
sg17
I0
sg18
I0
sg19
I1599641
sg20
I0
sg21
I0
sg22
F0.0
sg23
I0
sg24
I80818
sg25
I860136
sg26
I1599641
ssS'BELDEN TIMOTHY N'
p251
(dp252
g3
I7991
sg4
I2144013
sg5
I17355
sg6
I01
sg7
I-2334434
sg8
S'tim.belden@enron.com'
p253
sg10
I0
sg11
I0
sg12
I5521
sg13
I0
sg14
I484
sg15
I210698
sg16
F0.028532098610937303
sg17
I0
sg18
I5249999
sg19
I1110705
sg20
I228
sg21
I108
sg22
F0.2231404958677686
sg23
I157569
sg24
I213999
sg25
I5501630
sg26
I953136
ssS'DURAN WILLIAM D'
p254
(dp255
g3
I904
sg4
I0
sg5
I25785
sg6
I00
sg7
I0
sg8
S'w.duran@enron.com'
p256
sg10
I1105218
sg11
I0
sg12
I599
sg13
I0
sg14
I12
sg15
I1568
sg16
F0.1172566371681416
sg17
I0
sg18
I750000
sg19
I1640910
sg20
I106
sg21
I3
sg22
F0.25
sg23
I189041
sg24
I210692
sg25
I2093263
sg26
I1451869
ssS'THORN TERENCE H'
p257
(dp258
g3
I266
sg4
I16586
sg5
I46145
sg6
I00
sg7
I0
sg8
S'terence.thorn@enron.com'
p259
sg10
I200000
sg11
I0
sg12
I73
sg13
I0
sg14
I41
sg15
I426629
sg16
F0.0
sg17
I0
sg18
I0
sg19
I4817796
sg20
I0
sg21
I0
sg22
F0.0
sg23
I365320
sg24
I222093
sg25
I911453
sg26
I4452476
ssS'FASTOW ANDREW S'
p260
(dp261
g3
I0
sg4
I0
sg5
I55921
sg6
I01
sg7
I-1386055
sg8
S'andrew.fastow@enron.com'
p262
sg10
I1736055
sg11
I0
sg12
I0
sg13
I0
sg14
I0
sg15
I277464
sg16
F0.0
sg17
I0
sg18
I1300000
sg19
I1794412
sg20
I0
sg21
I0
sg22
F0.0
sg23
I1794412
sg24
I440698
sg25
I2424083
sg26
I0
ssS'FOY JOE'
p263
(dp264
g3
I57
sg4
I181755
sg5
I0
sg6
I00
sg7
I0
sg8
S'tracy.foy@enron.com'
p265
sg10
I0
sg11
I0
sg12
I2
sg13
I0
sg14
I13
sg15
I0
sg16
F0.0
sg17
I0
sg18
I0
sg19
I343434
sg20
I0
sg21
I0
sg22
F0.0
sg23
I0
sg24
I0
sg25
I181755
sg26
I343434
ssS'CALGER CHRISTOPHER F'
p266
(dp267
g3
I2598
sg4
I0
sg5
I35818
sg6
I01
sg7
I-262500
sg8
S'christopher.calger@enron.com'
p268
sg10
I375304
sg11
I0
sg12
I2188
sg13
I0
sg14
I144
sg15
I486
sg16
F0.07659738260200154
sg17
I0
sg18
I1250000
sg19
I126027
sg20
I199
sg21
I25
sg22
F0.1736111111111111
sg23
I126027
sg24
I240189
sg25
I1639297
sg26
I0
ssS'RICE KENNETH D'
p269
(dp270
g3
I905
sg4
I0
sg5
I46950
sg6
I01
sg7
I-3504386
sg8
S'ken.rice@enron.com'
p271
sg10
I1617011
sg11
I0
sg12
I864
sg13
I0
sg14
I18
sg15
I174839
sg16
F0.04640883977900553
sg17
I0
sg18
I1750000
sg19
I22542539
sg20
I42
sg21
I4
sg22
F0.2222222222222222
sg23
I2748364
sg24
I420636
sg25
I505050
sg26
I19794175
ssS'KAMINSKI WINCENTY J'
p272
(dp273
g3
I4607
sg4
I0
sg5
I83585
sg6
I00
sg7
I0
sg8
S'vince.kaminski@enron.com'
p274
sg10
I323466
sg11
I0
sg12
I583
sg13
I0
sg14
I14368
sg15
I4669
sg16
F0.008899500759713479
sg17
I0
sg18
I400000
sg19
I976037
sg20
I41
sg21
I171
sg22
F0.011901447661469933
sg23
I126027
sg24
I275101
sg25
I1086821
sg26
I850010
ssS'LOCKHART EUGENE E'
p275
(dp276
g3
I0
sg4
I0
sg5
I0
sg6
I00
sg7
I0
sg8
g29
sg10
I0
sg11
I0
sg12
I0
sg13
I0
sg14
I0
sg15
I0
sg16
F0.0
sg17
I0
sg18
I0
sg19
I0
sg20
I0
sg21
I0
sg22
F0.0
sg23
I0
sg24
I0
sg25
I0
sg26
I0
ssS'COX DAVID'
p277
(dp278
g3
I102
sg4
I0
sg5
I27861
sg6
I00
sg7
I-41250
sg8
S'chip.cox@enron.com'
p279
sg10
I0
sg11
I0
sg12
I71
sg13
I0
sg14
I33
sg15
I494
sg16
F0.0
sg17
I0
sg18
I800000
sg19
I495633
sg20
I0
sg21
I4
sg22
F0.12121212121212122
sg23
I378082
sg24
I314288
sg25
I1101393
sg26
I117551
ssS'OVERDYKE JR JERE C'
p280
(dp281
g3
I0
sg4
I0
sg5
I18834
sg6
I00
sg7
I0
sg8
S'jere.overdyke@enron.com'
p282
sg10
I135836
sg11
I0
sg12
I0
sg13
I0
sg14
I0
sg15
I176
sg16
F0.0
sg17
I0
sg18
I0
sg19
I7307594
sg20
I0
sg21
I0
sg22
F0.0
sg23
I2041016
sg24
I94941
sg25
I249787
sg26
I5266578
ssS'PEREIRA PAULO V. FERRAZ'
p283
(dp284
g3
I0
sg4
I0
sg5
I27942
sg6
I00
sg7
I-101250
sg8
g29
sg10
I0
sg11
I0
sg12
I0
sg13
I0
sg14
I0
sg15
I0
sg16
F0.0
sg17
I101250
sg18
I0
sg19
I0
sg20
I0
sg21
I0
sg22
F0.0
sg23
I0
sg24
I0
sg25
I27942
sg26
I0
ssS'STABLER FRANK'
p285
(dp286
g3
I0
sg4
I0
sg5
I16514
sg6
I00
sg7
I0
sg8
S'frank.stabler@enron.com'
p287
sg10
I0
sg11
I0
sg12
I0
sg13
I0
sg14
I0
sg15
I356071
sg16
F0.0
sg17
I0
sg18
I500000
sg19
I511734
sg20
I0
sg21
I0
sg22
F0.0
sg23
I511734
sg24
I239502
sg25
I1112087
sg26
I0
ssS'SKILLING JEFFREY K'
p288
(dp289
g3
I3627
sg4
I0
sg5
I29336
sg6
I01
sg7
I0
sg8
S'jeff.skilling@enron.com'
p290
sg10
I1920000
sg11
I0
sg12
I2042
sg13
I0
sg14
I108
sg15
I22122
sg16
F0.0242624758753791
sg17
I0
sg18
I5600000
sg19
I26093672
sg20
I88
sg21
I30
sg22
F0.2777777777777778
sg23
I6843672
sg24
I1111258
sg25
I8682716
sg26
I19250000
ssS'BLAKE JR. NORMAN P'
p291
(dp292
g3
I0
sg4
I0
sg5
I1279
sg6
I00
sg7
I-113784
sg8
g29
sg10
I0
sg11
I0
sg12
I0
sg13
I0
sg14
I0
sg15
I0
sg16
F0.0
sg17
I113784
sg18
I0
sg19
I0
sg20
I0
sg21
I0
sg22
F0.0
sg23
I0
sg24
I0
sg25
I1279
sg26
I0
ssS'SHERRICK JEFFREY B'
p293
(dp294
g3
I613
sg4
I0
sg5
I0
sg6
I00
sg7
I0
sg8
S'jeffrey.sherrick@enron.com'
p295
sg10
I0
sg11
I0
sg12
I583
sg13
I0
sg14
I25
sg15
I0
sg16
F0.0636215334420881
sg17
I0
sg18
I0
sg19
I1832468
sg20
I39
sg21
I18
sg22
F0.72
sg23
I405999
sg24
I0
sg25
I0
sg26
I1426469
ssS'PRENTICE JAMES'
p296
(dp297
g3
I0
sg4
I564348
sg5
I0
sg6
I00
sg7
I0
sg8
S'james.prentice@enron.com'
p298
sg10
I0
sg11
I0
sg12
I0
sg13
I0
sg14
I0
sg15
I0
sg16
F0.0
sg17
I0
sg18
I0
sg19
I1095040
sg20
I0
sg21
I0
sg22
F0.0
sg23
I208809
sg24
I0
sg25
I564348
sg26
I886231
ssS'GRAY RODNEY'
p299
(dp300
g3
I0
sg4
I93585
sg5
I0
sg6
I00
sg7
I0
sg8
g29
sg10
I365625
sg11
I0
sg12
I0
sg13
I0
sg14
I0
sg15
I680833
sg16
F0.0
sg17
I0
sg18
I0
sg19
I0
sg20
I0
sg21
I0
sg22
F0.0
sg23
I0
sg24
I6615
sg25
I1146658
sg26
I0
ssS'PICKERING MARK R'
p301
(dp302
g3
I898
sg4
I0
sg5
I31653
sg6
I00
sg7
I0
sg8
S'mark.pickering@enron.com'
p303
sg10
I0
sg11
I0
sg12
I728
sg13
I400000
sg14
I67
sg15
I0
sg16
F0.0077951002227171495
sg17
I0
sg18
I300000
sg19
I28798
sg20
I7
sg21
I0
sg22
F0.0
sg23
I0
sg24
I655037
sg25
I1386690
sg26
I28798
ssS'THE TRAVEL AGENCY IN THE PARK'
p304
(dp305
g3
I0
sg4
I0
sg5
I0
sg6
I00
sg7
I0
sg8
g29
sg10
I0
sg11
I0
sg12
I0
sg13
I0
sg14
I0
sg15
I362096
sg16
F0.0
sg17
I0
sg18
I0
sg19
I0
sg20
I0
sg21
I0
sg22
F0.0
sg23
I0
sg24
I0
sg25
I362096
sg26
I0
ssS'NOLES JAMES L'
p306
(dp307
g3
I0
sg4
I774401
sg5
I0
sg6
I00
sg7
I0
sg8
g29
sg10
I0
sg11
I-94556
sg12
I0
sg13
I0
sg14
I0
sg15
I0
sg16
F0.0
sg17
I0
sg18
I0
sg19
I368705
sg20
I0
sg21
I0
sg22
F0.0
sg23
I463261
sg24
I0
sg25
I774401
sg26
I0
ssS'KEAN STEVEN J'
p308
(dp309
g3
I12754
sg4
I0
sg5
I41953
sg6
I00
sg7
I0
sg8
S'steven.kean@enron.com'
p310
sg10
I300000
sg11
I0
sg12
I3639
sg13
I0
sg14
I6759
sg15
I1231
sg16
F0.010976948408342482
sg17
I0
sg18
I1000000
sg19
I6153642
sg20
I140
sg21
I387
sg22
F0.05725699067909454
sg23
I4131594
sg24
I404338
sg25
I1747522
sg26
I2022048
ssS'FOWLER PEGGY'
p311
(dp312
g3
I517
sg4
I0
sg5
I0
sg6
I00
sg7
I0
sg8
S'kulvinder.fowler@enron.com'
p313
sg10
I0
sg11
I0
sg12
I10
sg13
I0
sg14
I36
sg15
I0
sg16
F0.0
sg17
I0
sg18
I0
sg19
I1884748
sg20
I0
sg21
I0
sg22
F0.0
sg23
I560170
sg24
I0
sg25
I0
sg26
I1324578
ssS'WASAFF GEORGE'
p314
(dp315
g3
I400
sg4
I831299
sg5
I0
sg6
I00
sg7
I-583325
sg8
S'george.wasaff@enron.com'
p316
sg10
I200000
sg11
I0
sg12
I337
sg13
I0
sg14
I30
sg15
I1425
sg16
F0.055
sg17
I0
sg18
I325000
sg19
I2056427
sg20
I22
sg21
I7
sg22
F0.23333333333333334
sg23
I388167
sg24
I259996
sg25
I1034395
sg26
I1668260
ssS'WHITE JR THOMAS E'
p317
(dp318
g3
I0
sg4
I0
sg5
I81353
sg6
I00
sg7
I0
sg8
S'thomas.white@enron.com'
p319
sg10
I0
sg11
I0
sg12
I0
sg13
I0
sg14
I0
sg15
I1085463
sg16
F0.0
sg17
I0
sg18
I450000
sg19
I15144123
sg20
I0
sg21
I0
sg22
F0.0
sg23
I13847074
sg24
I317543
sg25
I1934359
sg26
I1297049
ssS'CHRISTODOULOU DIOMEDES'
p320
(dp321
g3
I0
sg4
I0
sg5
I0
sg6
I00
sg7
I0
sg8
S'diomedes.christodoulou@enron.com'
p322
sg10
I0
sg11
I0
sg12
I0
sg13
I0
sg14
I0
sg15
I0
sg16
F0.0
sg17
I0
sg18
I0
sg19
I6077885
sg20
I0
sg21
I0
sg22
F0.0
sg23
I950730
sg24
I0
sg25
I0
sg26
I5127155
ssS'ALLEN PHILLIP K'
p323
(dp324
g3
I2902
sg4
I2869717
sg5
I13868
sg6
I00
sg7
I-3081055
sg8
S'phillip.allen@enron.com'
p325
sg10
I304805
sg11
I-126027
sg12
I1407
sg13
I0
sg14
I2195
sg15
I152
sg16
F0.016195727084769126
sg17
I0
sg18
I4175000
sg19
I1729541
sg20
I47
sg21
I65
sg22
F0.029612756264236904
sg23
I126027
sg24
I201955
sg25
I4484442
sg26
I1729541
ssS'SHARP VICTORIA T'
p326
(dp327
g3
I3136
sg4
I187469
sg5
I116337
sg6
I00
sg7
I0
sg8
S'vicki.sharp@enron.com'
p328
sg10
I422158
sg11
I0
sg12
I2477
sg13
I0
sg14
I136
sg15
I2401
sg16
F0.007653061224489796
sg17
I0
sg18
I600000
sg19
I494136
sg20
I24
sg21
I6
sg22
F0.04411764705882353
sg23
I213063
sg24
I248146
sg25
I1576511
sg26
I281073
ssS'JAEDICKE ROBERT'
p329
(dp330
g3
I0
sg4
I0
sg5
I0
sg6
I00
sg7
I-25000
sg8
g29
sg10
I0
sg11
I-44093
sg12
I0
sg13
I0
sg14
I0
sg15
I0
sg16
F0.0
sg17
I108750
sg18
I0
sg19
I431750
sg20
I0
sg21
I0
sg22
F0.0
sg23
I44093
sg24
I0
sg25
I83750
sg26
I431750
ssS'WINOKUR JR. HERBERT S'
p331
(dp332
g3
I0
sg4
I0
sg5
I1413
sg6
I00
sg7
I-25000
sg8
g29
sg10
I0
sg11
I0
sg12
I0
sg13
I0
sg14
I0
sg15
I0
sg16
F0.0
sg17
I108579
sg18
I0
sg19
I0
sg20
I0
sg21
I0
sg22
F0.0
sg23
I0
sg24
I0
sg25
I84992
sg26
I0
ssS'BROWN MICHAEL'
p333
(dp334
g3
I1486
sg4
I0
sg5
I49288
sg6
I00
sg7
I0
sg8
S'michael.brown@enron.com'
p335
sg10
I0
sg11
I0
sg12
I761
sg13
I0
sg14
I41
sg15
I0
sg16
F0.008748317631224764
sg17
I0
sg18
I0
sg19
I0
sg20
I13
sg21
I1
sg22
F0.024390243902439025
sg23
I0
sg24
I0
sg25
I49288
sg26
I0
ssS'BADUM JAMES P'
p336
(dp337
g3
I0
sg4
I178980
sg5
I3486
sg6
I00
sg7
I0
sg8
g29
sg10
I0
sg11
I0
sg12
I0
sg13
I0
sg14
I0
sg15
I0
sg16
F0.0
sg17
I0
sg18
I0
sg19
I257817
sg20
I0
sg21
I0
sg22
F0.0
sg23
I0
sg24
I0
sg25
I182466
sg26
I257817
ssS'HUGHES JAMES A'
p338
(dp339
g3
I719
sg4
I0
sg5
I0
sg6
I00
sg7
I0
sg8
S'james.hughes@enron.com'
p340
sg10
I0
sg11
I0
sg12
I589
sg13
I0
sg14
I34
sg15
I0
sg16
F0.048678720445062586
sg17
I0
sg18
I0
sg19
I1118394
sg20
I35
sg21
I5
sg22
F0.14705882352941177
sg23
I363428
sg24
I0
sg25
I0
sg26
I754966
ssS'REYNOLDS LAWRENCE'
p341
(dp342
g3
I0
sg4
I51365
sg5
I8409
sg6
I00
sg7
I-200000
sg8
g29
sg10
I156250
sg11
I-140264
sg12
I0
sg13
I0
sg14
I0
sg15
I202052
sg16
F0.0
sg17
I0
sg18
I100000
sg19
I4221891
sg20
I0
sg21
I0
sg22
F0.0
sg23
I201483
sg24
I76399
sg25
I394475
sg26
I4160672
ssS'DIMICHELE RICHARD G'
p343
(dp344
g3
I0
sg4
I0
sg5
I35812
sg6
I00
sg7
I0
sg8
S'richard.dimichele@enron.com'
p345
sg10
I694862
sg11
I0
sg12
I0
sg13
I0
sg14
I0
sg15
I374689
sg16
F0.0
sg17
I0
sg18
I1000000
sg19
I8317782
sg20
I0
sg21
I0
sg22
F0.0
sg23
I126027
sg24
I262788
sg25
I2368151
sg26
I8191755
ssS'BHATNAGAR SANJAY'
p346
(dp347
g3
I523
sg4
I0
sg5
I0
sg6
I00
sg7
I0
sg8
S'sanjay.bhatnagar@enron.com'
p348
sg10
I0
sg11
I15456290
sg12
I463
sg13
I0
sg14
I29
sg15
I137864
sg16
F0.0
sg17
I137864
sg18
I0
sS'total_stock_value'
p349
I0
sg20
I0
sg21
I1
sg22
F0.034482758620689655
sg23
I-2604490
sg24
I0
sg25
I15456290
sg26
I2604490
ssS'CARTER REBECCA C'
p350
(dp351
g3
I312
sg4
I0
sg5
I0
sg6
I00
sg7
I-159792
sg8
S'rebecca.carter@enron.com'
p352
sg10
I75000
sg11
I-307301
sg12
I196
sg13
I0
sg14
I15
sg15
I540
sg16
F0.09294871794871795
sg17
I0
sg18
I300000
sg19
I0
sg20
I29
sg21
I7
sg22
F0.4666666666666667
sg23
I307301
sg24
I261809
sg25
I477557
sg26
I0
ssS'BUCHANAN HAROLD G'
p353
(dp354
g3
I1088
sg4
I0
sg5
I600
sg6
I00
sg7
I0
sg8
S'john.buchanan@enron.com'
p355
sg10
I304805
sg11
I0
sg12
I23
sg13
I0
sg14
I125
sg15
I1215
sg16
F0.0
sg17
I0
sg18
I500000
sg19
I1014505
sg20
I0
sg21
I0
sg22
F0.0
sg23
I189041
sg24
I248017
sg25
I1054637
sg26
I825464
ssS'YEAP SOON'
p356
(dp357
g3
I0
sg4
I0
sg5
I55097
sg6
I00
sg7
I0
sg8
g29
sg10
I0
sg11
I0
sg12
I0
sg13
I0
sg14
I0
sg15
I0
sg16
F0.0
sg17
I0
sg18
I0
sg19
I192758
sg20
I0
sg21
I0
sg22
F0.0
sg23
I0
sg24
I0
sg25
I55097
sg26
I192758
ssS'MURRAY JULIA H'
p358
(dp359
g3
I2192
sg4
I0
sg5
I57580
sg6
I00
sg7
I0
sg8
S'julia.murray@enron.com'
p360
sg10
I125000
sg11
I0
sg12
I395
sg13
I0
sg14
I45
sg15
I330
sg16
F0.005018248175182482
sg17
I0
sg18
I400000
sg19
I597461
sg20
I11
sg21
I2
sg22
F0.044444444444444446
sg23
I196983
sg24
I229284
sg25
I812194
sg26
I400478
ssS'GARLAND C KEVIN'
p361
(dp362
g3
I209
sg4
I0
sg5
I48405
sg6
I00
sg7
I0
sg8
S'kevin.garland@enron.com'
p363
sg10
I375304
sg11
I0
sg12
I178
sg13
I0
sg14
I44
sg15
I60814
sg16
F0.04784688995215311
sg17
I0
sg18
I850000
sg19
I896153
sg20
I10
sg21
I27
sg22
F0.6136363636363636
sg23
I259907
sg24
I231946
sg25
I1566469
sg26
I636246
ssS'DODSON KEITH'
p364
(dp365
g3
I176
sg4
I0
sg5
I28164
sg6
I00
sg7
I0
sg8
S'keith.dodson@enron.com'
p366
sg10
I0
sg11
I0
sg12
I114
sg13
I0
sg14
I14
sg15
I774
sg16
F0.056818181818181816
sg17
I0
sg18
I70000
sg19
I0
sg20
I10
sg21
I3
sg22
F0.21428571428571427
sg23
I0
sg24
I221003
sg25
I319941
sg26
I0
ssS'YEAGER F SCOTT'
p367
(dp368
g3
I0
sg4
I0
sg5
I53947
sg6
I01
sg7
I0
sg8
S'scott.yeager@enron.com'
p369
sg10
I0
sg11
I0
sg12
I0
sg13
I0
sg14
I0
sg15
I147950
sg16
F0.0
sg17
I0
sg18
I0
sg19
I11884758
sg20
I0
sg21
I0
sg22
F0.0
sg23
I3576206
sg24
I158403
sg25
I360300
sg26
I8308552
ssS'HIRKO JOSEPH'
p370
(dp371
g3
I0
sg4
I10259
sg5
I77978
sg6
I01
sg7
I0
sg8
S'joe.hirko@enron.com'
p372
sg10
I0
sg11
I0
sg12
I0
sg13
I0
sg14
I0
sg15
I2856
sg16
F0.0
sg17
I0
sg18
I0
sg19
I30766064
sg20
I0
sg21
I0
sg22
F0.0
sg23
I0
sg24
I0
sg25
I91093
sg26
I30766064
ssS'DIETRICH JANET R'
p373
(dp374
g3
I2572
sg4
I0
sg5
I3475
sg6
I00
sg7
I0
sg8
S'janet.dietrich@enron.com'
p375
sg10
I556416
sg11
I0
sg12
I1902
sg13
I0
sg14
I63
sg15
I473
sg16
F0.11858475894245724
sg17
I0
sg18
I600000
sg19
I1865087
sg20
I305
sg21
I14
sg22
F0.2222222222222222
sg23
I315068
sg24
I250100
sg25
I1410464
sg26
I1550019
ssS'DERRICK JR. JAMES V'
p376
(dp377
g3
I2181
sg4
I0
sg5
I51124
sg6
I00
sg7
I-1284000
sg8
S'james.derrick@enron.com'
p378
sg10
I484000
sg11
I-1787380
sg12
I1401
sg13
I0
sg14
I909
sg15
I7482
sg16
F0.029344337459880788
sg17
I0
sg18
I800000
sg19
I8831913
sg20
I64
sg21
I20
sg22
F0.022002200220022004
sg23
I1787380
sg24
I492375
sg25
I550981
sg26
I8831913
ssS'FREVERT MARK A'
p379
(dp380
g3
I3275
sg4
I6426990
sg5
I86987
sg6
I00
sg7
I-3367011
sg8
S'mark.frevert@enron.com'
p381
sg10
I1617011
sg11
I0
sg12
I2979
sg13
I2000000
sg14
I21
sg15
I7427621
sg16
F0.07389312977099237
sg17
I0
sg18
I2000000
sg19
I14622185
sg20
I242
sg21
I6
sg22
F0.2857142857142857
sg23
I4188667
sg24
I1060932
sg25
I17252530
sg26
I10433518
ssS'PAI LOU L'
p382
(dp383
g3
I0
sg4
I0
sg5
I32047
sg6
I00
sg7
I0
sg8
S'lou.pai@enron.com'
p384
sg10
I0
sg11
I0
sg12
I0
sg13
I0
sg14
I0
sg15
I1829457
sg16
F0.0
sg17
I0
sg18
I1000000
sg19
I23817930
sg20
I0
sg21
I0
sg22
F0.0
sg23
I8453763
sg24
I261879
sg25
I3123383
sg26
I15364167
ssS'BAY FRANKLIN R'
p385
(dp386
g3
I0
sg4
I260455
sg5
I129142
sg6
I00
sg7
I-201641
sg8
S'frank.bay@enron.com'
p387
sg10
I0
sg11
I-82782
sg12
I0
sg13
I0
sg14
I0
sg15
I69
sg16
F0.0
sg17
I0
sg18
I400000
sg19
I63014
sg20
I0
sg21
I0
sg22
F0.0
sg23
I145796
sg24
I239671
sg25
I827696
sg26
I0
ssS'HAYSLETT RODERICK J'
p388
(dp389
g3
I2649
sg4
I0
sg5
I0
sg6
I00
sg7
I0
sg8
S'rod.hayslett@enron.com'
p390
sg10
I0
sg11
I0
sg12
I571
sg13
I0
sg14
I1061
sg15
I0
sg16
F0.01321253303133258
sg17
I0
sg18
I0
sg19
I346663
sg20
I35
sg21
I38
sg22
F0.03581526861451461
sg23
I346663
sg24
I0
sg25
I0
sg26
I0
ssS'FUGH JOHN L'
p391
(dp392
g3
I0
sg4
I50591
sg5
I0
sg6
I00
sg7
I0
sg8
g29
sg10
I0
sg11
I0
sg12
I0
sg13
I0
sg14
I0
sg15
I0
sg16
F0.0
sg17
I0
sg18
I0
sg19
I176378
sg20
I0
sg21
I0
sg22
F0.0
sg23
I0
sg24
I0
sg25
I50591
sg26
I176378
ssS'FALLON JAMES B'
p393
(dp394
g3
I1755
sg4
I0
sg5
I95924
sg6
I00
sg7
I0
sg8
S'jim.fallon@enron.com'
p395
sg10
I374347
sg11
I0
sg12
I1604
sg13
I0
sg14
I75
sg15
I401481
sg16
F0.023931623931623933
sg17
I0
sg18
I2500000
sg19
I2332399
sg20
I42
sg21
I37
sg22
F0.49333333333333335
sg23
I1392142
sg24
I304588
sg25
I3676340
sg26
I940257
ssS'KOENIG MARK E'
p396
(dp397
g3
I2374
sg4
I0
sg5
I127017
sg6
I01
sg7
I0
sg8
S'mark.koenig@enron.com'
p398
sg10
I300000
sg11
I0
sg12
I2271
sg13
I0
sg14
I61
sg15
I150458
sg16
F0.02232518955349621
sg17
I0
sg18
I700000
sg19
I1920055
sg20
I53
sg21
I15
sg22
F0.2459016393442623
sg23
I1248318
sg24
I309946
sg25
I1587421
sg26
I671737
ssS'SAVAGE FRANK'
p399
(dp400
g3
I0
sg4
I0
sg5
I0
sg6
I00
sg7
I-121284
sg8
g29
sg10
I0
sg11
I0
sg12
I0
sg13
I0
sg14
I0
sg15
I0
sg16
F0.0
sg17
I125034
sg18
I0
sg19
I0
sg20
I0
sg21
I0
sg22
F0.0
sg23
I0
sg24
I0
sg25
I3750
sg26
I0
ssS'IZZO LAWRENCE L'
p401
(dp402
g3
I496
sg4
I0
sg5
I28093
sg6
I00
sg7
I0
sg8
S'larry.izzo@enron.com'
p403
sg10
I312500
sg11
I0
sg12
I437
sg13
I0
sg14
I19
sg15
I1553729
sg16
F0.056451612903225805
sg17
I0
sg18
I0
sg19
I5819980
sg20
I28
sg21
I5
sg22
F0.2631578947368421
sg23
I3654808
sg24
I85274
sg25
I1979596
sg26
I2165172
ssS'TILNEY ELIZABETH A'
p404
(dp405
g3
I460
sg4
I0
sg5
I0
sg6
I00
sg7
I-575000
sg8
S'elizabeth.tilney@enron.com'
p406
sg10
I275000
sg11
I0
sg12
I379
sg13
I0
sg14
I19
sg15
I152055
sg16
F0.021739130434782608
sg17
I0
sg18
I300000
sg19
I1168042
sg20
I10
sg21
I11
sg22
F0.5789473684210527
sg23
I576792
sg24
I247338
sg25
I399393
sg26
I591250
ssS'MARTIN AMANDA K'
p407
(dp408
g3
I1522
sg4
I85430
sg5
I8211
sg6
I00
sg7
I0
sg8
S'a..martin@enron.com'
p409
sg10
I5145434
sg11
I0
sg12
I477
sg13
I0
sg14
I230
sg15
I2818454
sg16
F0.005256241787122208
sg17
I0
sg18
I0
sg19
I2070306
sg20
I8
sg21
I0
sg22
F0.0
sg23
I0
sg24
I349487
sg25
I8407016
sg26
I2070306
ssS'BUY RICHARD B'
p410
(dp411
g3
I3523
sg4
I649584
sg5
I0
sg6
I00
sg7
I-694862
sg8
S'rick.buy@enron.com'
p412
sg10
I769862
sg11
I0
sg12
I2333
sg13
I0
sg14
I1053
sg15
I400572
sg16
F0.04428044280442804
sg17
I0
sg18
I900000
sg19
I3444470
sg20
I156
sg21
I71
sg22
F0.06742640075973409
sg23
I901657
sg24
I330546
sg25
I2355702
sg26
I2542813
ssS'GRAMM WENDY L'
p413
(dp414
g3
I0
sg4
I0
sg5
I0
sg6
I00
sg7
I0
sg8
g29
sg10
I0
sg11
I0
sg12
I0
sg13
I0
sg14
I0
sg15
I0
sg16
F0.0
sg17
I119292
sg18
I0
sg19
I0
sg20
I0
sg21
I0
sg22
F0.0
sg23
I0
sg24
I0
sg25
I119292
sg26
I0
ssS'CAUSEY RICHARD A'
p415
(dp416
g3
I1892
sg4
I0
sg5
I30674
sg6
I01
sg7
I-235000
sg8
S'richard.causey@enron.com'
p417
sg10
I350000
sg11
I0
sg12
I1585
sg13
I0
sg14
I49
sg15
I307895
sg16
F0.0306553911205074
sg17
I0
sg18
I1000000
sg19
I2502063
sg20
I58
sg21
I12
sg22
F0.24489795918367346
sg23
I2502063
sg24
I415189
sg25
I1868758
sg26
I0
ssS'TAYLOR MITCHELL S'
p418
(dp419
g3
I533
sg4
I227449
sg5
I0
sg6
I00
sg7
I0
sg8
S'mitchell.taylor@enron.com'
p420
sg10
I0
sg11
I0
sg12
I300
sg13
I0
sg14
I29
sg15
I0
sg16
F0.0
sg17
I0
sg18
I600000
sg19
I3745048
sg20
I0
sg21
I0
sg22
F0.0
sg23
I563798
sg24
I265214
sg25
I1092663
sg26
I3181250
ssS'DONAHUE JR JEFFREY M'
p421
(dp422
g3
I865
sg4
I0
sg5
I96268
sg6
I00
sg7
I-300000
sg8
S'jeff.donahue@enron.com'
p423
sg10
I0
sg11
I0
sg12
I772
sg13
I0
sg14
I22
sg15
I891
sg16
F0.21734104046242775
sg17
I0
sg18
I800000
sg19
I1080988
sg20
I188
sg21
I11
sg22
F0.5
sg23
I315068
sg24
I278601
sg25
I875760
sg26
I765920
ssS'GLISAN JR BEN F'
p424
(dp425
g3
I873
sg4
I0
sg5
I125978
sg6
I01
sg7
I0
sg8
S'ben.glisan@enron.com'
p426
sg10
I71023
sg11
I0
sg12
I874
sg13
I0
sg14
I16
sg15
I200308
sg16
F0.05956471935853379
sg17
I0
sg18
I600000
sg19
I778546
sg20
I52
sg21
I6
sg22
F0.375
sg23
I393818
sg24
I274975
sg25
I1272284
sg26
I384728
ss.